Certificate:
    Data:
        Version: 1 (0x0)
        Serial Number: 4104 (0x1008)
    Signature Algorithm: sha256WithRSAEncryption
        Issuer: CN=Interm.
        Validity
            Not Before: Apr 27 21:17:41 2020 GMT
            Not After : Apr 27 21:17:41 2021 GMT
        Subject: CN=control-center1
        Subject Public Key Info:
            Public Key Algorithm: rsaEncryption
                Public-Key: (2048 bit)
                Modulus:
                    00:ef:a2:50:15:33:46:1f:bd:23:2a:16:46:ce:20:
                    64:5e:3d:f2:66:69:de:00:7c:fd:c8:cc:2f:eb:6f:
                    ca:c7:bc:34:6a:4a:84:76:42:1a:79:6d:36:98:1b:
                    70:17:aa:c2:60:5c:a5:2d:e8:67:f4:53:a9:49:dd:
                    d2:eb:48:f9:d0:cd:e1:56:bb:40:72:3a:37:5b:c4:
                    26:c9:ad:b9:72:84:16:d3:1f:74:e1:9c:c1:e2:d9:
                    1f:d7:09:24:89:72:32:ac:c0:76:41:01:f7:81:9a:
                    9e:b6:f1:ed:cb:34:c4:30:e0:86:14:6f:d9:40:b8:
                    e6:da:6d:79:ea:84:93:44:58:23:bc:f8:a3:3c:69:
                    cc:66:85:74:ac:74:b6:01:65:a1:b2:fc:6c:c3:2e:
                    ad:49:a6:c8:34:7c:5e:c8:b7:e3:c1:ea:8f:60:03:
                    d7:d0:0c:51:90:fb:10:48:55:95:fc:76:ce:ed:92:
                    5e:ca:63:0e:76:51:6d:ec:42:bb:d7:d9:94:85:79:
                    00:d4:a8:f2:8d:bc:db:24:41:c2:26:d9:d9:19:d2:
                    51:f9:7a:56:46:95:ef:06:9e:73:83:72:6d:dd:d5:
                    27:f4:bb:8e:b1:b3:b6:f6:73:cf:c0:7c:41:78:12:
                    0e:49:bc:bc:2d:11:82:74:64:4b:24:69:2b:80:60:
                    49:07
                Exponent: 65537 (0x10001)
    Signature Algorithm: sha256WithRSAEncryption
         a2:1c:0a:18:14:0d:b4:78:88:a9:7f:c4:9b:51:cb:b6:57:85:
         f6:31:e3:9a:37:42:69:4a:88:c8:3a:a3:49:65:c5:a4:03:1c:
         9e:9f:38:26:de:ae:a8:da:62:6e:df:31:2c:54:38:0b:e9:40:
         ba:10:fa:11:b2:9e:45:94:f8:4f:07:f2:9f:b4:14:bb:17:71:
         49:72:d8:25:ea:b1:77:91:b0:30:f9:c4:69:f7:4f:4c:3d:de:
         62:f8:2c:79:7a:f2:0f:0d:25:7d:17:ef:8a:74:ae:ee:97:fd:
         db:fa:29:c1:ac:1f:53:49:ef:79:ba:36:c2:72:8f:0d:73:bc:
         d7:2d:6e:7e:be:7c:40:57:d6:e7:49:14:c5:6d:e3:46:65:3b:
         90:da:bc:6c:95:c2:6e:2c:c1:c0:6a:89:f4:8d:ca:af:fd:83:
         0d:75:a5:b3:a5:a2:af:b8:50:b0:79:6b:e3:71:a9:98:31:41:
         9f:9e:f0:92:3c:9c:82:0c:d1:35:3a:68:b8:ef:bb:26:5b:7e:
         c8:e1:01:70:a9:2c:c2:04:a1:e2:44:b1:3e:58:c2:3b:62:48:
         25:fb:9c:2f:cd:42:e8:13:1b:e7:4d:58:52:ea:cf:fa:a2:01:
         7b:90:bc:82:89:2f:94:6b:d8:a9:34:07:29:9e:12:0f:25:f2:
         6e:8a:78:cc
-----BEGIN CERTIFICATE-----
MIICoTCCAYkCAhAIMA0GCSqGSIb3DQEBCwUAMBIxEDAOBgNVBAMMB0ludGVybS4w
HhcNMjAwNDI3MjExNzQxWhcNMjEwNDI3MjExNzQxWjAaMRgwFgYDVQQDDA9jb250
cm9sLWNlbnRlcjEwggEiMA0GCSqGSIb3DQEBAQUAA4IBDwAwggEKAoIBAQDvolAV
M0YfvSMqFkbOIGRePfJmad4AfP3IzC/rb8rHvDRqSoR2Qhp5bTaYG3AXqsJgXKUt
6Gf0U6lJ3dLrSPnQzeFWu0ByOjdbxCbJrblyhBbTH3ThnMHi2R/XCSSJcjKswHZB
AfeBmp628e3LNMQw4IYUb9lAuObabXnqhJNEWCO8+KM8acxmhXSsdLYBZaGy/GzD
Lq1Jpsg0fF7It+PB6o9gA9fQDFGQ+xBIVZX8ds7tkl7KYw52UW3sQrvX2ZSFeQDU
qPKNvNskQcIm2dkZ0lH5elZGle8GnnODcm3d1Sf0u46xs7b2c8/AfEF4Eg5JvLwt
EYJ0ZEskaSuAYEkHAgMBAAEwDQYJKoZIhvcNAQELBQADggEBAKIcChgUDbR4iKl/
xJtRy7ZXhfYx45o3QmlKiMg6o0llxaQDHJ6fOCberqjaYm7fMSxUOAvpQLoQ+hGy
nkWU+E8H8p+0FLsXcUly2CXqsXeRsDD5xGn3T0w93mL4LHl68g8NJX0X74p0ru6X
/dv6KcGsH1NJ73m6NsJyjw1zvNctbn6+fEBX1udJFMVt40ZlO5DavGyVwm4swcBq
ifSNyq/9gw11pbOloq+4ULB5a+NxqZgxQZ+e8JI8nIIM0TU6aLjvuyZbfsjhAXCp
LMIEoeJEsT5YwjtiSCX7nC/NQugTG+dNWFLqz/qiAXuQvIKJL5Rr2Kk0BymeEg8l
8m6KeMw=
-----END CERTIFICATE-----
