Certificate:
    Data:
        Version: 1 (0x0)
        Serial Number: 4099 (0x1003)
    Signature Algorithm: sha256WithRSAEncryption
        Issuer: CN=Interm.
        Validity
            Not Before: Apr 27 21:17:40 2020 GMT
            Not After : Apr 27 21:17:40 2021 GMT
        Subject: CN=kafka-broker3
        Subject Public Key Info:
            Public Key Algorithm: rsaEncryption
                Public-Key: (2048 bit)
                Modulus:
                    00:f0:bf:83:ba:74:78:ec:12:5a:4e:ba:dd:ad:8f:
                    d2:9b:83:88:87:c4:95:70:a7:47:a6:46:30:9e:9f:
                    8b:80:f2:96:97:46:ea:a8:12:3b:f8:d9:ab:bd:6b:
                    80:3f:b2:b5:b0:00:b9:6d:8d:33:44:3b:79:78:b5:
                    51:dd:e4:53:85:17:5b:b5:be:a2:2e:f9:56:d0:c0:
                    28:5f:9a:05:86:8d:c7:d3:09:9a:4d:74:42:cf:e6:
                    be:0b:81:90:3a:9c:dd:23:ed:4b:53:3d:f2:e8:50:
                    a8:78:4e:6e:69:cd:50:07:bf:bd:d2:9b:47:d0:c0:
                    4c:5d:5c:8b:c5:45:88:95:9c:9c:ee:72:4b:09:5e:
                    09:23:56:e3:02:9b:4b:a3:66:61:3b:53:99:d9:bd:
                    06:f6:db:ff:54:6d:9d:49:e4:58:b2:d4:e8:7a:f6:
                    2b:81:c9:6d:ae:9a:48:ca:d3:3a:2a:d2:eb:37:ff:
                    e6:da:04:7d:fe:42:c1:41:65:5a:4d:bc:7f:0c:f4:
                    7f:84:23:fd:00:20:24:04:3d:9c:87:0d:aa:f4:a1:
                    d8:c4:67:24:04:10:87:b5:f7:92:62:9d:31:78:48:
                    6d:84:55:20:35:8a:86:6c:3f:cc:38:c9:89:f6:f8:
                    a2:93:10:5d:96:f0:af:1f:71:3e:bc:dd:60:14:76:
                    2f:ad
                Exponent: 65537 (0x10001)
    Signature Algorithm: sha256WithRSAEncryption
         12:7e:b6:42:63:34:c0:50:b4:ec:b2:4d:3d:a0:c4:65:25:39:
         f1:d8:b1:91:44:73:36:4b:67:cb:05:23:40:a4:9d:b3:5b:cc:
         17:9c:86:96:a6:0c:9b:9b:91:a3:c3:9b:5e:18:85:eb:1a:93:
         52:06:11:b6:44:88:4e:b0:37:74:12:7c:dd:8e:4a:b7:cc:04:
         ed:15:76:54:d9:35:f6:b8:02:36:39:ec:31:05:ac:b7:1b:22:
         25:a6:24:b3:81:81:12:a4:89:66:96:f6:2e:04:14:0e:ee:6c:
         a9:7e:86:9b:46:43:7e:cb:5e:0e:f4:67:b6:87:63:b3:e2:87:
         10:3e:97:c8:5a:3c:a6:e3:92:88:4d:01:db:fb:bd:2d:d0:78:
         f8:01:a8:2e:18:68:6b:13:4a:db:29:11:de:6b:08:16:2f:d2:
         e8:68:64:bf:eb:1b:9e:cd:ca:38:95:b7:2e:e2:b7:f2:00:4a:
         0f:aa:ec:9a:02:d7:19:a2:5f:21:af:0d:e2:db:ce:44:e3:89:
         f8:08:8f:83:01:78:32:97:15:80:a4:96:d9:05:29:23:7f:4f:
         81:18:69:cc:d0:0c:0f:94:2d:3f:55:38:f2:63:b9:f7:9b:47:
         ae:c3:d0:d2:95:4e:7d:cf:57:8a:e2:f2:ed:00:50:0b:80:51:
         41:85:ce:36
-----BEGIN CERTIFICATE-----
MIICnzCCAYcCAhADMA0GCSqGSIb3DQEBCwUAMBIxEDAOBgNVBAMMB0ludGVybS4w
HhcNMjAwNDI3MjExNzQwWhcNMjEwNDI3MjExNzQwWjAYMRYwFAYDVQQDDA1rYWZr
YS1icm9rZXIzMIIBIjANBgkqhkiG9w0BAQEFAAOCAQ8AMIIBCgKCAQEA8L+DunR4
7BJaTrrdrY/Sm4OIh8SVcKdHpkYwnp+LgPKWl0bqqBI7+NmrvWuAP7K1sAC5bY0z
RDt5eLVR3eRThRdbtb6iLvlW0MAoX5oFho3H0wmaTXRCz+a+C4GQOpzdI+1LUz3y
6FCoeE5uac1QB7+90ptH0MBMXVyLxUWIlZyc7nJLCV4JI1bjAptLo2ZhO1OZ2b0G
9tv/VG2dSeRYstToevYrgcltrppIytM6KtLrN//m2gR9/kLBQWVaTbx/DPR/hCP9
ACAkBD2chw2q9KHYxGckBBCHtfeSYp0xeEhthFUgNYqGbD/MOMmJ9viikxBdlvCv
H3E+vN1gFHYvrQIDAQABMA0GCSqGSIb3DQEBCwUAA4IBAQASfrZCYzTAULTssk09
oMRlJTnx2LGRRHM2S2fLBSNApJ2zW8wXnIaWpgybm5Gjw5teGIXrGpNSBhG2RIhO
sDd0Enzdjkq3zATtFXZU2TX2uAI2OewxBay3GyIlpiSzgYESpIlmlvYuBBQO7myp
foabRkN+y14O9Ge2h2Oz4ocQPpfIWjym45KITQHb+70t0Hj4AaguGGhrE0rbKRHe
awgWL9LoaGS/6xuezco4lbcu4rfyAEoPquyaAtcZol8hrw3i285E44n4CI+DAXgy
lxWApJbZBSkjf0+BGGnM0AwPlC0/VTjyY7n3m0euw9DSlU59z1eK4vLtAFALgFFB
hc42
-----END CERTIFICATE-----
