Certificate:
    Data:
        Version: 1 (0x0)
        Serial Number: 4103 (0x1007)
    Signature Algorithm: sha256WithRSAEncryption
        Issuer: CN=Interm.
        Validity
            Not Before: Apr 27 21:17:40 2020 GMT
            Not After : Apr 27 21:17:40 2021 GMT
        Subject: CN=ksql1
        Subject Public Key Info:
            Public Key Algorithm: rsaEncryption
                Public-Key: (2048 bit)
                Modulus:
                    00:d6:bc:65:0c:90:62:2f:8b:4f:bf:3c:5a:92:f8:
                    b1:36:08:94:e1:2c:23:3b:56:f6:f2:7d:50:c6:40:
                    ec:16:75:4f:85:20:38:51:f6:ae:c5:80:6a:d1:34:
                    02:68:fe:00:05:bc:1d:fc:33:56:86:9a:28:0f:4a:
                    f4:3e:bd:a8:71:49:3d:41:fd:f8:85:ba:6d:43:78:
                    21:90:b8:51:c8:3b:ab:50:82:1a:36:8b:a6:22:9b:
                    b3:52:75:f8:17:73:94:b7:ef:32:28:ef:ff:45:c0:
                    84:41:d2:e8:7a:c1:e0:09:d2:8e:f3:8f:50:a6:ae:
                    6d:8d:e6:d5:b0:ef:c9:94:66:77:91:0c:ff:1e:9d:
                    09:df:51:03:8f:6c:cf:34:23:e7:02:69:52:bc:06:
                    ac:df:c8:cd:5d:18:25:d9:70:3e:e8:59:e2:f9:ab:
                    24:2f:21:7f:57:fd:7c:41:8a:7d:05:c9:12:ef:7f:
                    a5:30:ef:b9:43:40:6f:08:fd:24:9c:2a:e3:83:e2:
                    37:01:6e:3e:b0:e6:7d:18:d2:67:2b:95:1a:e2:df:
                    62:87:df:1a:e5:2e:6e:78:57:40:80:3b:89:c9:cc:
                    43:65:6e:71:19:7a:ff:ca:a0:ed:00:1f:14:04:0d:
                    4d:eb:80:e6:db:95:fd:a3:47:98:3d:1a:72:5f:6b:
                    d9:7f
                Exponent: 65537 (0x10001)
    Signature Algorithm: sha256WithRSAEncryption
         c2:77:f3:a3:0a:49:c0:93:66:41:f0:38:9f:4f:af:a8:d5:28:
         74:11:4a:f5:b0:67:f9:4a:ab:5e:f2:8b:ba:55:54:2e:81:54:
         f4:4c:39:4d:b7:53:b9:0b:b2:cc:b5:de:ad:e4:fe:aa:d4:d1:
         72:d3:10:85:4d:a1:d3:c1:7f:c1:a1:4b:4c:d6:7a:82:b8:8c:
         9f:5d:aa:5c:0f:3f:46:2e:53:db:93:ed:59:b2:41:d9:d8:43:
         a3:ba:a4:78:d0:2f:11:c1:08:b5:b7:ae:05:33:09:46:85:29:
         b3:13:26:6b:25:f0:c1:00:9a:db:2d:36:9f:c0:3b:2b:b9:f2:
         06:1b:78:80:af:c8:e7:19:50:f5:87:b0:ee:3e:43:5c:65:5c:
         35:1c:2d:3c:e8:7e:48:2c:dd:3b:ae:e7:6e:8f:17:14:cf:01:
         c2:05:37:dd:1b:48:d4:08:b6:a6:c6:3f:6d:57:26:b4:96:6c:
         c2:a7:04:8a:d0:44:cd:f4:89:e0:42:a3:b3:28:9b:c3:6f:24:
         42:5e:26:b4:14:11:22:0d:36:84:49:bc:41:9d:19:2a:ea:3a:
         f9:2a:c8:73:50:f2:0d:b8:68:7a:98:12:02:8c:dd:c7:07:80:
         57:ac:a0:85:0d:ea:96:08:7a:fc:8d:95:53:3b:5c:65:97:83:
         80:97:76:cf
-----BEGIN CERTIFICATE-----
MIIClzCCAX8CAhAHMA0GCSqGSIb3DQEBCwUAMBIxEDAOBgNVBAMMB0ludGVybS4w
HhcNMjAwNDI3MjExNzQwWhcNMjEwNDI3MjExNzQwWjAQMQ4wDAYDVQQDDAVrc3Fs
MTCCASIwDQYJKoZIhvcNAQEBBQADggEPADCCAQoCggEBANa8ZQyQYi+LT788WpL4
sTYIlOEsIztW9vJ9UMZA7BZ1T4UgOFH2rsWAatE0Amj+AAW8HfwzVoaaKA9K9D69
qHFJPUH9+IW6bUN4IZC4Ucg7q1CCGjaLpiKbs1J1+BdzlLfvMijv/0XAhEHS6HrB
4AnSjvOPUKaubY3m1bDvyZRmd5EM/x6dCd9RA49szzQj5wJpUrwGrN/IzV0YJdlw
PuhZ4vmrJC8hf1f9fEGKfQXJEu9/pTDvuUNAbwj9JJwq44PiNwFuPrDmfRjSZyuV
GuLfYoffGuUubnhXQIA7icnMQ2VucRl6/8qg7QAfFAQNTeuA5tuV/aNHmD0acl9r
2X8CAwEAATANBgkqhkiG9w0BAQsFAAOCAQEAwnfzowpJwJNmQfA4n0+vqNUodBFK
9bBn+UqrXvKLulVULoFU9Ew5TbdTuQuyzLXereT+qtTRctMQhU2h08F/waFLTNZ6
griMn12qXA8/Ri5T25PtWbJB2dhDo7qkeNAvEcEItbeuBTMJRoUpsxMmayXwwQCa
2y02n8A7K7nyBht4gK/I5xlQ9Yew7j5DXGVcNRwtPOh+SCzdO67nbo8XFM8BwgU3
3RtI1Ai2psY/bVcmtJZswqcEitBEzfSJ4EKjsyibw28kQl4mtBQRIg02hEm8QZ0Z
Kuo6+SrIc1DyDbhoepgSAozdxweAV6yghQ3qlgh6/I2VUztcZZeDgJd2zw==
-----END CERTIFICATE-----
