Certificate:
    Data:
        Version: 1 (0x0)
        Serial Number: 4097 (0x1001)
    Signature Algorithm: sha256WithRSAEncryption
        Issuer: CN=Interm.
        Validity
            Not Before: Apr 27 21:17:40 2020 GMT
            Not After : Apr 27 21:17:40 2021 GMT
        Subject: CN=kafka-broker1
        Subject Public Key Info:
            Public Key Algorithm: rsaEncryption
                Public-Key: (2048 bit)
                Modulus:
                    00:a8:fd:9a:05:ce:ab:3b:ab:89:df:17:4f:90:5a:
                    86:71:ab:d7:2d:f7:a5:d1:d8:32:db:82:bc:d0:ef:
                    21:c1:d6:e9:22:2e:b4:9a:16:34:c2:70:28:58:84:
                    9c:67:d5:fe:89:4e:72:c3:5d:4a:1e:d3:7a:b9:0d:
                    ba:b7:7e:af:68:05:31:d0:7d:46:8d:78:cc:45:e3:
                    4d:88:21:d8:d6:6a:89:c9:01:d7:37:2e:f2:f4:89:
                    e4:1d:27:b5:0a:59:12:ec:a8:26:1c:de:66:9e:94:
                    c1:d1:9d:18:52:9b:d5:38:21:b8:5f:71:f9:f3:76:
                    97:69:2f:31:74:55:7a:3f:22:b9:40:35:5d:b6:5a:
                    b7:bf:21:dc:dd:34:f6:c8:9f:5e:e0:e0:02:8a:ec:
                    01:94:7e:e5:83:ac:7f:06:35:96:9c:30:55:70:89:
                    dc:71:ab:6f:2a:a3:c4:56:12:7f:f4:35:d1:da:ad:
                    94:93:cb:86:c9:c0:3b:ad:72:7a:e6:93:1e:13:59:
                    98:5c:4c:60:d1:05:98:4f:85:98:ca:b0:25:1f:10:
                    6d:45:fe:f4:97:15:64:1e:11:bf:e2:8a:be:30:da:
                    49:41:e5:30:db:af:d5:08:95:b9:32:d0:11:65:44:
                    64:c8:a4:06:5c:d5:0e:96:e3:74:f1:fd:3d:2f:52:
                    9d:4b
                Exponent: 65537 (0x10001)
    Signature Algorithm: sha256WithRSAEncryption
         93:bc:16:89:d8:31:d2:9f:aa:d9:67:cb:1a:35:5b:d9:6d:66:
         2a:e8:bc:bc:e1:9f:61:e4:c6:79:61:83:82:63:e5:7b:bd:bf:
         ba:13:1d:61:6e:85:8a:6f:0d:eb:2a:72:dd:00:cf:94:ce:8c:
         dc:84:50:55:dc:6a:0f:df:85:02:7e:cf:55:bd:dc:c1:0b:27:
         3a:7c:6f:4e:bb:68:fb:14:92:d3:8d:d8:ac:5f:df:70:60:ef:
         b6:0f:f0:3a:45:24:be:e5:b7:43:e5:9e:e8:14:0d:88:05:34:
         57:ce:b2:f0:5d:88:7c:5d:46:40:fe:5f:c2:56:ab:f3:15:53:
         cf:99:be:41:9e:4e:70:e5:d1:c6:76:04:bb:ff:06:02:a8:0e:
         e8:91:48:7e:7c:cc:1a:0c:e8:a3:66:87:77:c5:15:84:c4:62:
         d0:9b:b2:3b:bd:ac:b6:f6:38:6d:15:23:b3:bd:6d:13:7b:e6:
         79:a6:dd:c2:fc:0c:b1:49:d4:25:d1:cc:b6:4d:aa:3c:bb:23:
         6c:58:20:1d:1d:f9:c8:1a:85:e4:a7:b5:2c:78:c9:b0:f2:36:
         bb:72:de:e5:d1:4d:07:24:72:f0:f8:5d:fe:98:62:0c:b4:83:
         ad:64:4a:4f:d7:0a:cb:90:1d:be:73:54:f0:77:bf:4a:4f:54:
         1f:2f:1a:11
-----BEGIN CERTIFICATE-----
MIICnzCCAYcCAhABMA0GCSqGSIb3DQEBCwUAMBIxEDAOBgNVBAMMB0ludGVybS4w
HhcNMjAwNDI3MjExNzQwWhcNMjEwNDI3MjExNzQwWjAYMRYwFAYDVQQDDA1rYWZr
YS1icm9rZXIxMIIBIjANBgkqhkiG9w0BAQEFAAOCAQ8AMIIBCgKCAQEAqP2aBc6r
O6uJ3xdPkFqGcavXLfel0dgy24K80O8hwdbpIi60mhY0wnAoWIScZ9X+iU5yw11K
HtN6uQ26t36vaAUx0H1GjXjMReNNiCHY1mqJyQHXNy7y9InkHSe1ClkS7KgmHN5m
npTB0Z0YUpvVOCG4X3H583aXaS8xdFV6PyK5QDVdtlq3vyHc3TT2yJ9e4OACiuwB
lH7lg6x/BjWWnDBVcInccatvKqPEVhJ/9DXR2q2Uk8uGycA7rXJ65pMeE1mYXExg
0QWYT4WYyrAlHxBtRf70lxVkHhG/4oq+MNpJQeUw26/VCJW5MtARZURkyKQGXNUO
luN08f09L1KdSwIDAQABMA0GCSqGSIb3DQEBCwUAA4IBAQCTvBaJ2DHSn6rZZ8sa
NVvZbWYq6Ly84Z9h5MZ5YYOCY+V7vb+6Ex1hboWKbw3rKnLdAM+UzozchFBV3GoP
34UCfs9VvdzBCyc6fG9Ou2j7FJLTjdisX99wYO+2D/A6RSS+5bdD5Z7oFA2IBTRX
zrLwXYh8XUZA/l/CVqvzFVPPmb5Bnk5w5dHGdgS7/wYCqA7okUh+fMwaDOijZod3
xRWExGLQm7I7vay29jhtFSOzvW0Te+Z5pt3C/AyxSdQl0cy2Tao8uyNsWCAdHfnI
GoXkp7UseMmw8ja7ct7l0U0HJHLw+F3+mGIMtIOtZEpP1wrLkB2+c1Twd79KT1Qf
LxoR
-----END CERTIFICATE-----
