Certificate:
    Data:
        Version: 1 (0x0)
        Serial Number: 4098 (0x1002)
    Signature Algorithm: sha256WithRSAEncryption
        Issuer: CN=Interm.
        Validity
            Not Before: Apr 27 21:17:40 2020 GMT
            Not After : Apr 27 21:17:40 2021 GMT
        Subject: CN=kafka-broker2
        Subject Public Key Info:
            Public Key Algorithm: rsaEncryption
                Public-Key: (2048 bit)
                Modulus:
                    00:c8:22:d8:c8:0b:49:60:63:71:d6:3f:3d:25:73:
                    b6:b5:a1:5d:a1:a4:0c:8f:ba:a9:8e:0e:66:5c:cc:
                    6f:79:24:c6:87:71:f0:fd:94:ec:91:2b:b5:71:b7:
                    e5:af:06:7c:43:d2:5d:5c:b4:4f:f4:d8:28:65:05:
                    f6:e3:f4:28:84:56:eb:22:16:f7:48:48:78:8c:39:
                    16:21:51:78:c9:6e:e2:68:3f:c9:25:81:5e:5d:fe:
                    3a:e6:5b:bb:55:30:6d:dc:95:55:67:66:45:1f:be:
                    78:48:c1:d5:c0:03:cc:90:c6:66:8c:b0:f8:88:48:
                    ad:72:95:49:9c:14:e9:1e:ea:d6:cc:ff:89:9b:a4:
                    fe:32:c6:a3:98:4d:78:b6:81:9b:ca:05:3a:9d:f4:
                    5d:30:df:28:39:f9:ed:27:20:99:f9:54:f9:4e:30:
                    8f:c9:13:2f:82:eb:e5:9b:7f:75:33:9f:7c:78:57:
                    e5:84:fa:c9:27:09:8e:23:c4:f9:e8:5e:d8:21:24:
                    5c:a4:07:db:42:55:28:0a:1c:7b:c1:0b:d0:06:53:
                    d9:78:7b:2c:37:44:08:8d:99:04:03:0b:d8:ac:e3:
                    6e:5b:db:3c:22:a6:29:55:02:6d:ee:be:c5:50:32:
                    79:a7:cd:26:d9:e4:0f:68:16:18:47:81:a6:ef:1e:
                    65:6b
                Exponent: 65537 (0x10001)
    Signature Algorithm: sha256WithRSAEncryption
         b7:3a:0d:3b:e7:38:4a:69:1a:a0:32:77:be:de:bd:bb:f0:66:
         ee:a3:cb:c6:09:38:5d:da:06:3f:71:b1:c7:9d:b9:8f:86:3a:
         f7:61:f5:b3:13:a7:3a:4b:0a:37:da:f4:09:72:f8:5b:8b:f2:
         38:5c:87:6c:7f:2a:4f:6c:25:82:11:c7:f6:e8:0b:e6:e2:d5:
         32:1b:7c:c3:29:c0:0f:77:71:4d:40:28:62:7e:15:1a:ec:c1:
         03:18:e2:9c:39:0c:ef:c9:7f:79:35:ad:ac:76:dd:44:e1:5e:
         30:06:51:fd:55:70:fb:8e:b1:b9:9c:cb:81:92:2e:6b:7a:03:
         2c:ef:28:1c:c5:2a:31:63:0a:dc:52:3b:f5:31:71:3c:cc:2a:
         44:22:77:28:aa:cb:92:13:75:e1:3f:50:83:46:01:92:ad:11:
         89:cd:1a:3b:75:6e:f2:53:93:3f:df:b1:91:09:53:60:0a:63:
         c7:01:88:4f:b7:f5:34:d1:fc:f7:04:56:f0:e1:d5:68:04:d0:
         32:05:fc:a7:f9:8a:cc:af:ad:49:88:09:20:9f:0d:72:8c:0c:
         4d:f2:3a:9e:08:9e:f5:02:86:78:f8:7c:5a:4a:f2:b4:5d:71:
         00:84:3e:e8:b3:e5:47:4b:3d:47:9f:d8:53:b3:0d:c8:79:f6:
         ca:ff:e0:9d
-----BEGIN CERTIFICATE-----
MIICnzCCAYcCAhACMA0GCSqGSIb3DQEBCwUAMBIxEDAOBgNVBAMMB0ludGVybS4w
HhcNMjAwNDI3MjExNzQwWhcNMjEwNDI3MjExNzQwWjAYMRYwFAYDVQQDDA1rYWZr
YS1icm9rZXIyMIIBIjANBgkqhkiG9w0BAQEFAAOCAQ8AMIIBCgKCAQEAyCLYyAtJ
YGNx1j89JXO2taFdoaQMj7qpjg5mXMxveSTGh3Hw/ZTskSu1cbflrwZ8Q9JdXLRP
9NgoZQX24/QohFbrIhb3SEh4jDkWIVF4yW7iaD/JJYFeXf465lu7VTBt3JVVZ2ZF
H754SMHVwAPMkMZmjLD4iEitcpVJnBTpHurWzP+Jm6T+MsajmE14toGbygU6nfRd
MN8oOfntJyCZ+VT5TjCPyRMvguvlm391M598eFflhPrJJwmOI8T56F7YISRcpAfb
QlUoChx7wQvQBlPZeHssN0QIjZkEAwvYrONuW9s8IqYpVQJt7r7FUDJ5p80m2eQP
aBYYR4Gm7x5lawIDAQABMA0GCSqGSIb3DQEBCwUAA4IBAQC3Og075zhKaRqgMne+
3r278Gbuo8vGCThd2gY/cbHHnbmPhjr3YfWzE6c6Swo32vQJcvhbi/I4XIdsfypP
bCWCEcf26Avm4tUyG3zDKcAPd3FNQChifhUa7MEDGOKcOQzvyX95Na2sdt1E4V4w
BlH9VXD7jrG5nMuBki5regMs7ygcxSoxYwrcUjv1MXE8zCpEIncoqsuSE3XhP1CD
RgGSrRGJzRo7dW7yU5M/37GRCVNgCmPHAYhPt/U00fz3BFbw4dVoBNAyBfyn+YrM
r61JiAkgnw1yjAxN8jqeCJ71AoZ4+HxaSvK0XXEAhD7os+VHSz1Hn9hTsw3IefbK
/+Cd
-----END CERTIFICATE-----
