Certificate:
    Data:
        Version: 1 (0x0)
        Serial Number: 4100 (0x1004)
    Signature Algorithm: sha256WithRSAEncryption
        Issuer: CN=Interm.
        Validity
            Not Before: Apr 27 21:17:40 2020 GMT
            Not After : Apr 27 21:17:40 2021 GMT
        Subject: CN=schema-registry1
        Subject Public Key Info:
            Public Key Algorithm: rsaEncryption
                Public-Key: (2048 bit)
                Modulus:
                    00:bd:79:f8:3f:01:cf:00:ce:5a:e3:10:9b:c0:b5:
                    ea:e0:e6:e8:4a:29:d4:6f:6c:91:0e:cd:d9:8a:40:
                    65:96:c8:af:8c:fa:5c:97:fd:01:62:f0:25:bf:ad:
                    95:9e:e3:85:b4:9d:50:48:28:84:d9:bc:aa:dd:a2:
                    0b:4c:30:36:38:45:10:74:ab:b1:42:bb:9e:15:30:
                    5e:6e:f1:64:5f:83:a1:b1:65:01:04:39:f7:85:0e:
                    d5:a6:fb:56:4e:da:55:36:10:d0:fe:8a:c2:fc:4b:
                    ba:c4:6d:0c:a3:80:38:43:04:f6:80:63:a4:af:a5:
                    2b:b7:13:1b:78:0f:76:55:7a:3a:ec:39:3f:4b:86:
                    b8:9e:84:de:a5:93:09:15:c3:7d:7d:5a:b4:ed:6d:
                    49:ef:9c:39:7b:2a:b1:66:4c:f7:50:e5:90:f5:7d:
                    21:5e:1e:d8:df:d6:ac:df:18:18:cf:ac:e6:be:02:
                    36:42:13:24:d8:b7:c5:e6:ca:5f:ea:5f:9a:85:34:
                    ee:19:5b:eb:0b:c6:ba:c6:eb:7c:1a:99:d1:85:49:
                    4d:cc:0b:72:40:4e:3d:60:cb:35:4b:07:ba:cd:8b:
                    7f:33:85:0f:66:4d:73:2e:78:84:a5:28:bc:6a:10:
                    ec:ef:3b:82:f4:4f:a7:6d:2b:2d:e1:ca:e6:0f:a6:
                    0e:01
                Exponent: 65537 (0x10001)
    Signature Algorithm: sha256WithRSAEncryption
         21:88:71:c3:1d:98:e9:66:28:38:0c:51:20:73:36:53:f1:7a:
         9e:d2:11:62:3f:e4:9f:3c:58:dc:28:bc:96:bd:fd:3b:02:ad:
         5a:27:bb:63:68:26:30:38:eb:6d:23:57:86:6f:12:1c:b5:34:
         9c:15:41:f9:34:bd:89:42:a5:c3:13:c7:8e:c9:89:1b:f9:38:
         e2:3e:63:fe:e5:ab:2a:25:c7:e4:f2:8e:44:c3:c1:10:84:52:
         a8:f9:0e:fe:b4:54:f5:28:13:97:b1:94:ad:f1:3a:7c:7f:1e:
         50:82:4f:b6:fd:3d:d6:92:cc:06:8c:5b:ac:14:9d:c2:e1:42:
         ec:62:17:6e:64:d2:6f:e7:35:92:fd:63:25:24:98:92:c1:65:
         ef:73:0e:b6:f4:c0:ee:9d:15:01:5a:96:4a:bc:d8:76:b8:ec:
         e9:f0:db:ae:04:82:a0:fb:57:a9:9a:84:b3:82:64:c9:79:63:
         33:f8:bd:87:c7:58:6b:07:82:88:3d:28:5f:70:42:61:34:d4:
         92:59:72:f6:2e:d6:bd:34:dd:d2:4a:e0:75:ea:4b:6f:09:cc:
         8e:7c:0e:a1:76:d8:17:a3:d6:d1:eb:a3:f1:f3:ce:de:30:54:
         69:58:79:58:2e:29:36:f1:b8:55:0a:da:a4:7f:b4:fe:a9:2c:
         18:89:d3:f8
-----BEGIN CERTIFICATE-----
MIICojCCAYoCAhAEMA0GCSqGSIb3DQEBCwUAMBIxEDAOBgNVBAMMB0ludGVybS4w
HhcNMjAwNDI3MjExNzQwWhcNMjEwNDI3MjExNzQwWjAbMRkwFwYDVQQDDBBzY2hl
bWEtcmVnaXN0cnkxMIIBIjANBgkqhkiG9w0BAQEFAAOCAQ8AMIIBCgKCAQEAvXn4
PwHPAM5a4xCbwLXq4OboSinUb2yRDs3ZikBllsivjPpcl/0BYvAlv62VnuOFtJ1Q
SCiE2byq3aILTDA2OEUQdKuxQrueFTBebvFkX4OhsWUBBDn3hQ7VpvtWTtpVNhDQ
/orC/Eu6xG0Mo4A4QwT2gGOkr6UrtxMbeA92VXo67Dk/S4a4noTepZMJFcN9fVq0
7W1J75w5eyqxZkz3UOWQ9X0hXh7Y39as3xgYz6zmvgI2QhMk2LfF5spf6l+ahTTu
GVvrC8a6xut8GpnRhUlNzAtyQE49YMs1Swe6zYt/M4UPZk1zLniEpSi8ahDs7zuC
9E+nbSst4crmD6YOAQIDAQABMA0GCSqGSIb3DQEBCwUAA4IBAQAhiHHDHZjpZig4
DFEgczZT8Xqe0hFiP+SfPFjcKLyWvf07Aq1aJ7tjaCYwOOttI1eGbxIctTScFUH5
NL2JQqXDE8eOyYkb+TjiPmP+5asqJcfk8o5Ew8EQhFKo+Q7+tFT1KBOXsZSt8Tp8
fx5Qgk+2/T3WkswGjFusFJ3C4ULsYhduZNJv5zWS/WMlJJiSwWXvcw629MDunRUB
WpZKvNh2uOzp8NuuBIKg+1epmoSzgmTJeWMz+L2Hx1hrB4KIPShfcEJhNNSSWXL2
Lta9NN3SSuB16ktvCcyOfA6hdtgXo9bR66Px887eMFRpWHlYLik28bhVCtqkf7T+
qSwYidP4
-----END CERTIFICATE-----
