Certificate:
    Data:
        Version: 1 (0x0)
        Serial Number: 4101 (0x1005)
    Signature Algorithm: sha256WithRSAEncryption
        Issuer: CN=Interm.
        Validity
            Not Before: Apr 27 21:17:40 2020 GMT
            Not After : Apr 27 21:17:40 2021 GMT
        Subject: CN=kafka-connect1
        Subject Public Key Info:
            Public Key Algorithm: rsaEncryption
                Public-Key: (2048 bit)
                Modulus:
                    00:d9:fa:a4:83:64:22:ce:30:5b:03:cf:b7:a0:8c:
                    6a:41:d0:16:aa:e2:91:16:58:41:5d:83:31:4d:c8:
                    52:09:dc:61:78:a4:e0:5d:5f:ca:3f:4c:5c:85:74:
                    75:98:0c:78:d2:7b:0b:15:cc:2c:77:90:b1:56:db:
                    59:af:e7:4d:78:9a:1f:60:62:84:22:f4:38:59:6c:
                    7c:15:05:4f:89:6e:19:6a:7c:d4:74:18:a1:91:58:
                    4c:f9:44:9c:10:e6:d1:76:74:8b:57:a3:78:d9:ee:
                    3e:b1:a7:9b:15:bb:1a:94:71:6a:9b:82:aa:29:4f:
                    93:8f:6f:f0:20:82:59:e4:e2:4c:1d:af:5e:4e:d2:
                    ca:b1:bc:46:d3:70:ee:c5:a4:62:4b:3d:ca:4a:94:
                    74:34:df:51:59:de:a4:a7:39:b9:44:5f:55:63:7a:
                    73:f0:3c:0a:ac:d1:87:b3:91:ea:ed:a6:f1:6a:47:
                    b2:00:0c:9b:f4:68:49:91:db:6e:70:90:9f:e9:5c:
                    b9:ca:ec:05:02:60:20:a7:86:34:c2:01:2e:63:4b:
                    4c:9c:6d:04:99:8e:79:9d:60:fb:53:50:8e:1a:f9:
                    ea:e2:59:c2:5f:06:d5:bc:4e:3c:e3:f0:01:40:f9:
                    d5:78:cd:9d:72:a8:f6:f2:42:58:37:81:26:d2:a9:
                    4a:9d
                Exponent: 65537 (0x10001)
    Signature Algorithm: sha256WithRSAEncryption
         94:9c:b0:5e:d9:64:31:f3:bc:ba:87:e3:fe:a4:aa:57:79:81:
         f0:7d:8e:31:a4:cf:4a:23:c8:84:36:a3:47:c7:c6:eb:f1:97:
         ec:9d:a4:90:e9:de:be:be:4f:50:b3:64:a7:e2:45:ac:ba:56:
         f8:92:f1:9c:37:02:1b:41:1a:ca:a8:f8:c9:2f:b8:48:2b:a2:
         97:c2:3f:0a:d5:f1:d4:5c:ba:3a:74:4e:cf:86:c6:2b:0d:18:
         21:ea:2a:b0:82:e2:f4:aa:86:c0:f8:de:e6:dd:a2:34:48:54:
         bd:4e:1f:08:47:ff:f2:d4:fb:f5:f9:69:89:94:b9:de:c7:83:
         1e:bf:d8:8c:0a:b2:b0:fc:24:1d:b2:96:ec:73:df:39:ef:8c:
         a0:d5:2d:1f:86:f1:6f:4c:ba:c2:99:3c:c9:25:33:88:8f:b8:
         a3:f1:45:2e:95:65:ba:df:2c:f6:88:a7:7f:38:3c:bb:19:4e:
         ac:51:70:57:ef:5c:2a:1f:6c:15:6f:9c:98:9a:06:02:77:c7:
         58:fd:28:e1:ac:92:f7:79:5e:73:42:e6:fd:7e:44:4d:3f:21:
         99:69:71:29:8f:1b:d4:71:06:22:09:b5:d4:68:9c:04:7b:dd:
         51:ee:c4:b3:17:75:34:59:a8:b3:3c:77:16:94:dd:41:31:27:
         bf:9e:c9:45
-----BEGIN CERTIFICATE-----
MIICoDCCAYgCAhAFMA0GCSqGSIb3DQEBCwUAMBIxEDAOBgNVBAMMB0ludGVybS4w
HhcNMjAwNDI3MjExNzQwWhcNMjEwNDI3MjExNzQwWjAZMRcwFQYDVQQDDA5rYWZr
YS1jb25uZWN0MTCCASIwDQYJKoZIhvcNAQEBBQADggEPADCCAQoCggEBANn6pINk
Is4wWwPPt6CMakHQFqrikRZYQV2DMU3IUgncYXik4F1fyj9MXIV0dZgMeNJ7CxXM
LHeQsVbbWa/nTXiaH2BihCL0OFlsfBUFT4luGWp81HQYoZFYTPlEnBDm0XZ0i1ej
eNnuPrGnmxW7GpRxapuCqilPk49v8CCCWeTiTB2vXk7SyrG8RtNw7sWkYks9ykqU
dDTfUVnepKc5uURfVWN6c/A8CqzRh7OR6u2m8WpHsgAMm/RoSZHbbnCQn+lcucrs
BQJgIKeGNMIBLmNLTJxtBJmOeZ1g+1NQjhr56uJZwl8G1bxOPOPwAUD51XjNnXKo
9vJCWDeBJtKpSp0CAwEAATANBgkqhkiG9w0BAQsFAAOCAQEAlJywXtlkMfO8uofj
/qSqV3mB8H2OMaTPSiPIhDajR8fG6/GX7J2kkOnevr5PULNkp+JFrLpW+JLxnDcC
G0Eayqj4yS+4SCuil8I/CtXx1Fy6OnROz4bGKw0YIeoqsILi9KqGwPje5t2iNEhU
vU4fCEf/8tT79flpiZS53seDHr/YjAqysPwkHbKW7HPfOe+MoNUtH4bxb0y6wpk8
ySUziI+4o/FFLpVlut8s9oinfzg8uxlOrFFwV+9cKh9sFW+cmJoGAnfHWP0o4ayS
93lec0Lm/X5ETT8hmWlxKY8b1HEGIgm11GicBHvdUe7Esxd1NFmoszx3FpTdQTEn
v57JRQ==
-----END CERTIFICATE-----
