Certificate:
    Data:
        Version: 1 (0x0)
        Serial Number: 4102 (0x1006)
    Signature Algorithm: sha256WithRSAEncryption
        Issuer: CN=Interm.
        Validity
            Not Before: Apr 27 21:17:40 2020 GMT
            Not After : Apr 27 21:17:40 2021 GMT
        Subject: CN=kafka-rest1
        Subject Public Key Info:
            Public Key Algorithm: rsaEncryption
                Public-Key: (2048 bit)
                Modulus:
                    00:ec:9f:65:bb:1d:90:da:d1:6a:a2:b8:12:da:95:
                    4f:4a:33:a3:29:f4:92:b4:f0:f9:00:7f:5b:40:0d:
                    eb:7b:db:20:9f:95:6d:f4:76:e4:aa:3f:56:8a:5b:
                    cb:7d:e6:2e:62:4b:06:03:2a:5b:e4:63:f9:a3:7c:
                    70:24:17:91:ed:75:e0:ee:d3:a6:63:16:be:51:38:
                    c5:9c:80:bf:af:db:4b:4d:d8:93:fc:b3:c1:bf:10:
                    f9:c1:35:31:c8:6e:9e:f7:e8:42:71:1b:9c:af:26:
                    00:9d:08:43:82:67:6e:74:4e:1c:70:06:43:b7:66:
                    79:03:ab:25:8b:22:89:d3:f6:f2:a8:10:74:3f:b3:
                    45:ce:5d:97:6e:a1:53:c2:88:a5:5c:84:da:5a:62:
                    ef:23:33:2c:08:f3:0c:03:9c:1a:3a:e3:a1:1b:9a:
                    b1:eb:b2:50:06:04:2d:09:54:01:c3:ca:db:20:0f:
                    2a:b7:34:74:22:33:78:30:96:1e:43:0a:91:a5:0a:
                    36:0a:0c:e8:c5:32:9d:cf:2d:ca:cb:96:8c:d9:a8:
                    55:fc:82:6a:12:f8:5d:e7:f3:21:4f:ba:52:32:a6:
                    19:6e:98:4f:ea:54:eb:d4:25:41:f9:ee:2c:be:53:
                    7c:41:a6:00:4f:92:4e:ce:d2:bf:2b:37:64:f3:05:
                    c4:17
                Exponent: 65537 (0x10001)
    Signature Algorithm: sha256WithRSAEncryption
         10:73:bc:9c:9f:9d:98:30:c7:81:5b:f4:82:88:15:ec:93:fb:
         95:94:5b:da:be:40:78:29:5b:04:e3:ad:1f:a1:21:89:c4:88:
         6b:1f:92:1a:55:b2:10:2a:a4:b2:64:40:93:ff:29:b1:10:7d:
         b7:6c:19:27:5b:d3:8c:a7:62:cc:d8:a1:ab:5b:d1:c0:5f:8c:
         b3:59:b5:7c:12:92:38:f7:89:ea:a0:38:ea:18:8d:7c:fd:c9:
         9c:7f:d7:1b:2e:00:04:2a:1a:63:88:80:6a:80:70:d1:57:7a:
         96:53:5d:12:d2:26:09:03:60:26:2d:b4:ed:34:7a:2d:2c:e0:
         e9:50:2b:47:b0:82:bf:42:f6:d3:63:b8:3a:6b:c2:c4:be:bb:
         8f:ac:5d:ea:6f:25:6c:46:a2:ba:b3:3c:5c:e9:53:0c:dc:d1:
         cd:e8:e8:5f:55:13:e1:ad:1f:31:55:3a:37:74:93:a5:1b:c2:
         bd:1a:bf:e9:69:44:5a:6a:52:8c:6b:22:93:44:67:0d:d2:ed:
         26:c9:a7:c7:99:df:78:1f:bd:b3:4d:c3:eb:89:58:fd:81:44:
         1f:5a:67:97:36:88:0f:cc:d0:fc:45:02:44:20:ce:17:3c:3e:
         88:98:f9:01:2b:e3:66:86:12:f7:d9:7f:9f:b8:15:4e:80:bf:
         17:47:8f:5d
-----BEGIN CERTIFICATE-----
MIICnTCCAYUCAhAGMA0GCSqGSIb3DQEBCwUAMBIxEDAOBgNVBAMMB0ludGVybS4w
HhcNMjAwNDI3MjExNzQwWhcNMjEwNDI3MjExNzQwWjAWMRQwEgYDVQQDDAtrYWZr
YS1yZXN0MTCCASIwDQYJKoZIhvcNAQEBBQADggEPADCCAQoCggEBAOyfZbsdkNrR
aqK4EtqVT0ozoyn0krTw+QB/W0AN63vbIJ+VbfR25Ko/Vopby33mLmJLBgMqW+Rj
+aN8cCQXke114O7TpmMWvlE4xZyAv6/bS03Yk/yzwb8Q+cE1MchunvfoQnEbnK8m
AJ0IQ4JnbnROHHAGQ7dmeQOrJYsiidP28qgQdD+zRc5dl26hU8KIpVyE2lpi7yMz
LAjzDAOcGjrjoRuaseuyUAYELQlUAcPK2yAPKrc0dCIzeDCWHkMKkaUKNgoM6MUy
nc8tysuWjNmoVfyCahL4XefzIU+6UjKmGW6YT+pU69QlQfnuLL5TfEGmAE+STs7S
vys3ZPMFxBcCAwEAATANBgkqhkiG9w0BAQsFAAOCAQEAEHO8nJ+dmDDHgVv0gogV
7JP7lZRb2r5AeClbBOOtH6EhicSIax+SGlWyECqksmRAk/8psRB9t2wZJ1vTjKdi
zNihq1vRwF+Ms1m1fBKSOPeJ6qA46hiNfP3JnH/XGy4ABCoaY4iAaoBw0Vd6llNd
EtImCQNgJi207TR6LSzg6VArR7CCv0L202O4OmvCxL67j6xd6m8lbEaiurM8XOlT
DNzRzejoX1UT4a0fMVU6N3STpRvCvRq/6WlEWmpSjGsik0RnDdLtJsmnx5nfeB+9
s03D64lY/YFEH1pnlzaID8zQ/EUCRCDOFzw+iJj5ASvjZoYS99l/n7gVToC/F0eP
XQ==
-----END CERTIFICATE-----
